(dp0
S'opti'
p1
(dp2
S' '
p3
(dp4
S'y'
p5
I3
sS'x'
p6
I6
ssS"'"
p7
(dp8
g5
I4
sg6
I6
ssS'.'
p9
(dp10
g5
I1
sg6
I0
ssS'a'
p11
(dp12
g5
I2
sg6
I4
ssS'c'
p13
(dp14
g5
I0
sg6
I4
ssS'b'
p15
(dp16
g5
I2
sg6
I0
ssS'e'
p17
(dp18
g5
I2
sg6
I3
ssS'd'
p19
(dp20
g5
I3
sg6
I4
ssS'g'
p21
(dp22
g5
I4
sg6
I3
ssS'f'
p23
(dp24
g5
I0
sg6
I1
ssS'i'
p25
(dp26
g5
I3
sg6
I2
ssS'h'
p27
(dp28
g5
I1
sg6
I4
ssS'k'
p29
(dp30
g5
I0
sg6
I5
ssS'j'
p31
(dp32
g5
I4
sg6
I0
ssS'm'
p33
(dp34
g5
I0
sg6
I3
ssS'l'
p35
(dp36
g5
I4
sg6
I4
ssS'o'
p37
(dp38
g5
I1
sg6
I2
ssS'n'
p39
(dp40
g5
I3
sg6
I3
ssS'q'
p41
(dp42
g5
I0
sg6
I0
ssS'p'
p43
(dp44
g5
I4
sg6
I1
ssS's'
p45
(dp46
g5
I2
sg6
I1
ssS'r'
p47
(dp48
g5
I2
sg6
I2
ssS'u'
p49
(dp50
g5
I0
sg6
I2
ssS't'
p51
(dp52
g5
I1
sg6
I3
ssS'w'
p53
(dp54
g5
I2
sg6
I5
ssS'v'
p55
(dp56
g5
I4
sg6
I2
ssg5
(dp57
g5
I4
sg6
I5
ssg6
(dp58
g5
I2
sg6
I6
ssS'z'
p59
(dp60
g5
I0
sg6
I6
sssS'fitaly'
p61
(dp62
g3
(dp63
g5
I2
sg6
I5
ssg7
(dp64
g5
I2
sg6
I1
ssg9
(dp65
g5
I2
sg6
I0
ssg11
(dp66
g5
I1
sg6
I3
ssg13
(dp67
g5
I0
sg6
I2
ssg15
(dp68
g5
I3
sg6
I5
ssg17
(dp69
g5
I2
sg6
I3
ssg19
(dp70
g5
I3
sg6
I1
ssg21
(dp71
g5
I3
sg6
I0
ssg23
(dp72
g5
I1
sg6
I0
ssg25
(dp73
g5
I1
sg6
I1
ssg27
(dp74
g5
I0
sg6
I3
ssg29
(dp75
g5
I0
sg6
I5
ssg31
(dp76
g5
I4
sg6
I1
ssg33
(dp77
g5
I4
sg6
I3
ssg35
(dp78
g5
I1
sg6
I4
ssg37
(dp79
g5
I3
sg6
I2
ssg39
(dp80
g5
I2
sg6
I2
ssg41
(dp81
g5
I4
sg6
I0
ssg43
(dp82
g5
I4
sg6
I4
ssg45
(dp83
g5
I3
sg6
I4
ssg47
(dp84
g5
I3
sg6
I3
ssg49
(dp85
g5
I4
sg6
I2
ssg51
(dp86
g5
I1
sg6
I2
ssg53
(dp87
g5
I0
sg6
I4
ssg55
(dp88
g5
I0
sg6
I1
ssg5
(dp89
g5
I1
sg6
I5
ssg6
(dp90
g5
I4
sg6
I5
ssg59
(dp91
g5
I0
sg6
I0
sssS'dvorak1H'
p92
(dp93
g7
(dp94
g5
I0
sg6
I0
ssg9
(dp95
g5
I0
sg6
I1
ssg11
(dp96
g5
I2
sg6
I6
ssg13
(dp97
g5
I2
sg6
I1
ssg15
(dp98
g5
I1
sg6
I1
ssg17
(dp99
g5
I2
sg6
I5
ssg19
(dp100
g5
I2
sg6
I2
ssg21
(dp101
g5
I3
sg6
I1
ssg23
(dp102
g5
I0
sg6
I3
ssg25
(dp103
g5
I3
sg6
I5
ssg27
(dp104
g5
I2
sg6
I4
ssg29
(dp105
g5
I2
sg6
I0
ssg31
(dp106
g5
I0
sg6
I6
ssg33
(dp107
g5
I0
sg6
I4
ssg35
(dp108
g5
I0
sg6
I5
ssg37
(dp109
g5
I1
sg6
I6
ssg39
(dp110
g5
I3
sg6
I4
ssg41
(dp111
g5
I1
sg6
I0
ssg43
(dp112
g5
I0
sg6
I2
ssg45
(dp113
g5
I1
sg6
I5
ssg47
(dp114
g5
I1
sg6
I4
ssg49
(dp115
g5
I1
sg6
I3
ssg51
(dp116
g5
I2
sg6
I3
ssg53
(dp117
g5
I3
sg6
I3
ssg55
(dp118
g5
I3
sg6
I2
ssg5
(dp119
g5
I1
sg6
I2
ssg6
(dp120
g5
I3
sg6
I0
ssg59
(dp121
g5
I3
sg6
I6
sssS'dvorak'
p122
(dp123
g7
(dp124
g5
I0
sg6
I0
ssS','
p125
(dp126
g5
I0
sg6
I1
ssS'/'
p127
(dp128
g5
I2
sg6
I0
ssg9
(dp129
g5
I0
sg6
I2
ssg11
(dp130
g5
I1
sg6
I0
ssg13
(dp131
g5
I0
sg6
I7
ssg15
(dp132
g5
I2
sg6
I5
ssg17
(dp133
g5
I1
sg6
I2
ssg19
(dp134
g5
I1
sg6
I5
ssg21
(dp135
g5
I0
sg6
I6
ssg23
(dp136
g5
I0
sg6
I5
ssg25
(dp137
g5
I1
sg6
I4
ssg27
(dp138
g5
I1
sg6
I6
ssg29
(dp139
g5
I2
sg6
I3
ssg31
(dp140
g5
I2
sg6
I2
ssg33
(dp141
g5
I2
sg6
I6
ssg35
(dp142
g5
I0
sg6
I9
ssg37
(dp143
g5
I1
sg6
I1
ssg39
(dp144
g5
I1
sg6
I8
ssg41
(dp145
g5
I2
sg6
I1
ssg43
(dp146
g5
I0
sg6
I3
ssg45
(dp147
g5
I1
sg6
I9
ssg47
(dp148
g5
I0
sg6
I8
ssg49
(dp149
g5
I1
sg6
I3
ssg51
(dp150
g5
I1
sg6
I7
ssg53
(dp151
g5
I2
sg6
I7
ssg55
(dp152
g5
I2
sg6
I8
ssg5
(dp153
g5
I0
sg6
I4
ssg6
(dp154
g5
I2
sg6
I4
ssg59
(dp155
g5
I2
sg6
I9
sssS'qwerty'
p156
(dp157
g7
(dp158
g5
I1
sg6
I9
ssg125
(dp159
g5
I2
sg6
I7
ssg127
(dp160
g5
I2
sg6
I9
ssg9
(dp161
g5
I2
sg6
I8
ssg11
(dp162
g5
I1
sg6
I0
ssg13
(dp163
g5
I2
sg6
I2
ssg15
(dp164
g5
I2
sg6
I4
ssg17
(dp165
g5
I0
sg6
I2
ssg19
(dp166
g5
I1
sg6
I2
ssg21
(dp167
g5
I1
sg6
I4
ssg23
(dp168
g5
I1
sg6
I3
ssg25
(dp169
g5
I0
sg6
I7
ssg27
(dp170
g5
I1
sg6
I5
ssg29
(dp171
g5
I1
sg6
I7
ssg31
(dp172
g5
I1
sg6
I6
ssg33
(dp173
g5
I2
sg6
I5
ssg35
(dp174
g5
I1
sg6
I8
ssg37
(dp175
g5
I0
sg6
I8
ssg39
(dp176
g5
I2
sg6
I6
ssg41
(dp177
g5
I0
sg6
I0
ssg43
(dp178
g5
I0
sg6
I9
ssg45
(dp179
g5
I1
sg6
I1
ssg47
(dp180
g5
I0
sg6
I3
ssg49
(dp181
g5
I0
sg6
I6
ssg51
(dp182
g5
I0
sg6
I4
ssg53
(dp183
g5
I0
sg6
I1
ssg55
(dp184
g5
I2
sg6
I3
ssg5
(dp185
g5
I0
sg6
I5
ssg6
(dp186
g5
I2
sg6
I1
ssg59
(dp187
g5
I2
sg6
I0
sssS'colemak'
p188
(dp189
g7
(dp190
g5
I0
sg6
I9
ssg125
(dp191
g5
I2
sg6
I7
ssg127
(dp192
g5
I2
sg6
I9
ssg9
(dp193
g5
I2
sg6
I8
ssg11
(dp194
g5
I1
sg6
I0
ssg13
(dp195
g5
I2
sg6
I2
ssg15
(dp196
g5
I2
sg6
I4
ssg17
(dp197
g5
I1
sg6
I7
ssg19
(dp198
g5
I1
sg6
I4
ssg21
(dp199
g5
I0
sg6
I4
ssg23
(dp200
g5
I0
sg6
I2
ssg25
(dp201
g5
I1
sg6
I8
ssg27
(dp202
g5
I1
sg6
I5
ssg29
(dp203
g5
I2
sg6
I5
ssg31
(dp204
g5
I0
sg6
I5
ssg33
(dp205
g5
I2
sg6
I6
ssg35
(dp206
g5
I0
sg6
I6
ssg37
(dp207
g5
I1
sg6
I9
ssg39
(dp208
g5
I1
sg6
I6
ssg41
(dp209
g5
I0
sg6
I0
ssg43
(dp210
g5
I0
sg6
I3
ssg45
(dp211
g5
I1
sg6
I2
ssg47
(dp212
g5
I1
sg6
I1
ssg49
(dp213
g5
I0
sg6
I7
ssg51
(dp214
g5
I1
sg6
I3
ssg53
(dp215
g5
I0
sg6
I1
ssg55
(dp216
g5
I2
sg6
I3
ssg5
(dp217
g5
I0
sg6
I8
ssg6
(dp218
g5
I2
sg6
I1
ssg59
(dp219
g5
I2
sg6
I0
sss.