(dp0
S'keyboards'
p1
(dp2
S'opti'
p3
(lp4
(dp5
S'direction'
p6
F135.0
sS'magnitude'
p7
F2.8284271247461903
sS'dx'
p8
I-2
sS'dy'
p9
I2
sa(dp10
g6
F45.0
sg7
F2.8284271247461903
sg8
I2
sg9
I2
sa(dp11
g6
F201.80140948635182
sg7
F5.385164807134504
sg8
I-5
sg9
I-2
sa(dp12
g6
F333.434948822922
sg7
F2.23606797749979
sg8
I2
sg9
I-1
sa(dp13
g6
F26.56505117707799
sg7
F2.23606797749979
sg8
I2
sg9
I1
sa(dp14
g6
F180.0
sg7
F2.0
sg8
I-2
sg9
I0
sa(dp15
g6
F26.56505117707799
sg7
F2.23606797749979
sg8
I2
sg9
I1
sa(dp16
g6
F198.434948822922
sg7
F3.1622776601683795
sg8
I-3
sg9
I-1
sasS'fitaly'
p17
(lp18
(dp19
g6
F135.0
sg7
F2.8284271247461903
sg8
I-2
sg9
I2
sa(dp20
g6
F333.434948822922
sg7
F2.23606797749979
sg8
I2
sg9
I-1
sa(dp21
g6
F90.0
sg7
F2.0
sg8
I0
sg9
I2
sa(dp22
g6
F180.0
sg7
F3.0
sg8
I-3
sg9
I0
sa(dp23
g6
F296.565051177078
sg7
F2.23606797749979
sg8
I1
sg9
I-2
sa(dp24
g6
F90.0
sg7
F2.0
sg8
I0
sg9
I2
sa(dp25
g6
F180.0
sg7
F2.0
sg8
I-2
sg9
I0
sa(dp26
g6
F0.0
sg7
F3.0
sg8
I3
sg9
I0
sasS'dvorak1H'
p27
(lp28
(dp29
g6
F0.0
sg7
F5.0
sg8
I5
sg9
I0
sa(dp30
g6
F198.434948822922
sg7
F3.1622776601683795
sg8
I-3
sg9
I-1
sa(dp31
g6
F180.0
sg7
F1.0
sg8
I-1
sg9
I0
sa(dp32
g6
F0.0
sg7
F5.0
sg8
I5
sg9
I0
sa(dp33
g6
F90.0
sg7
F1.0
sg8
I0
sg9
I1
sa(dp34
g6
F206.565051177078
sg7
F2.23606797749979
sg8
I-2
sg9
I-1
sa(dp35
g6
F153.434948822922
sg7
F2.23606797749979
sg8
I-2
sg9
I1
sa(dp36
g6
F341.565051177078
sg7
F3.1622776601683795
sg8
I3
sg9
I-1
sasS'dvorak'
p37
(lp38
(dp39
g6
F225.0
sg7
F1.4142135623730951
sg8
I-1
sg9
I-1
sa(dp40
g6
F333.434948822922
sg7
F2.23606797749979
sg8
I2
sg9
I-1
sa(dp41
g6
F63.43494882292201
sg7
F2.23606797749979
sg8
I1
sg9
I2
sa(dp42
g6
F194.03624346792648
sg7
F4.123105625617661
sg8
I-4
sg9
I-1
sa(dp43
g6
F180.0
sg7
F1.0
sg8
I-1
sg9
I0
sa(dp44
g6
F352.8749836510982
sg7
F8.06225774829855
sg8
I8
sg9
I-1
sa(dp45
g6
F161.565051177078
sg7
F3.1622776601683795
sg8
I-3
sg9
I1
sa(dp46
g6
F0.0
sg7
F4.0
sg8
I4
sg9
I0
sasS'qwerty'
p47
(lp48
(dp49
g6
F191.3099324740202
sg7
F5.0990195135927845
sg8
I-5
sg9
I-1
sa(dp50
g6
F0.0
sg7
F3.0
sg8
I3
sg9
I0
sa(dp51
g6
F116.56505117707799
sg7
F2.23606797749979
sg8
I-1
sg9
I2
sa(dp52
g6
F333.434948822922
sg7
F4.47213595499958
sg8
I4
sg9
I-2
sa(dp53
g6
F172.8749836510982
sg7
F8.06225774829855
sg8
I-8
sg9
I1
sa(dp54
g6
F341.565051177078
sg7
F3.1622776601683795
sg8
I3
sg9
I-1
sa(dp55
g6
F135.0
sg7
F1.4142135623730951
sg8
I-1
sg9
I1
sa(dp56
g6
F180.0
sg7
F1.0
sg8
I-1
sg9
I0
sasS'colemak'
p57
(lp58
(dp59
g6
F333.434948822922
sg7
F2.23606797749979
sg8
I2
sg9
I-1
sa(dp60
g6
F315.0
sg7
F1.4142135623730951
sg8
I1
sg9
I-1
sa(dp61
g6
F153.434948822922
sg7
F4.47213595499958
sg8
I-4
sg9
I2
sa(dp62
g6
F348.69006752597977
sg7
F5.0990195135927845
sg8
I5
sg9
I-1
sa(dp63
g6
F180.0
sg7
F9.0
sg8
I-9
sg9
I0
sa(dp64
g6
F0.0
sg7
F1.0
sg8
I1
sg9
I0
sa(dp65
g6
F0.0
sg7
F3.0
sg8
I3
sg9
I0
sa(dp66
g6
F180.0
sg7
F2.0
sg8
I-2
sg9
I0
sass.