(dp0
S'opti'
p1
(dp2
S'action'
p3
(lp4
(dp5
S'direction'
p6
F270.0
sS'magnitude'
p7
F2.0
sS'dx'
p8
I0
sS'dy'
p9
I-2
sa(dp10
g6
F135.0
sg7
F1.4142135623730951
sg8
I-1
sg9
I1
sa(dp11
g6
F116.56505117707799
sg7
F2.23606797749979
sg8
I-1
sg9
I2
sa(dp12
g6
F270.0
sg7
F2.0
sg8
I0
sg9
I-2
sa(dp13
g6
F63.43494882292201
sg7
F2.23606797749979
sg8
I1
sg9
I2
sasS'develop'
p14
(lp15
(dp16
g6
F225.0
sg7
F1.4142135623730951
sg8
I-1
sg9
I-1
sa(dp17
g6
F116.56505117707799
sg7
F2.23606797749979
sg8
I-1
sg9
I2
sa(dp18
g6
F296.565051177078
sg7
F2.23606797749979
sg8
I1
sg9
I-2
sa(dp19
g6
F63.43494882292201
sg7
F2.23606797749979
sg8
I1
sg9
I2
sa(dp20
g6
F236.30993247402023
sg7
F3.605551275463989
sg8
I-2
sg9
I-3
sa(dp21
g6
F108.43494882292202
sg7
F3.1622776601683795
sg8
I-1
sg9
I3
sasS'consider'
p22
(lp23
(dp24
g6
F153.434948822922
sg7
F2.23606797749979
sg8
I-2
sg9
I1
sa(dp25
g6
F63.43494882292201
sg7
F2.23606797749979
sg8
I1
sg9
I2
sa(dp26
g6
F206.565051177078
sg7
F2.23606797749979
sg8
I-2
sg9
I-1
sa(dp27
g6
F45.0
sg7
F1.4142135623730951
sg8
I1
sg9
I1
sa(dp28
g6
F0.0
sg7
F2.0
sg8
I2
sg9
I0
sa(dp29
g6
F225.0
sg7
F1.4142135623730951
sg8
I-1
sg9
I-1
sa(dp30
g6
F180.0
sg7
F1.0
sg8
I-1
sg9
I0
sassS'fitaly'
p31
(dp32
S'action'
p33
(lp34
(dp35
g6
F225.0
sg7
F1.4142135623730951
sg8
I-1
sg9
I-1
sa(dp36
g6
F90.0
sg7
F1.0
sg8
I0
sg9
I1
sa(dp37
g6
F180.0
sg7
F1.0
sg8
I-1
sg9
I0
sa(dp38
g6
F63.43494882292201
sg7
F2.23606797749979
sg8
I1
sg9
I2
sa(dp39
g6
F270.0
sg7
F1.0
sg8
I0
sg9
I-1
sasS'develop'
p40
(lp41
(dp42
g6
F333.434948822922
sg7
F2.23606797749979
sg8
I2
sg9
I-1
sa(dp43
g6
F225.0
sg7
F2.8284271247461903
sg8
I-2
sg9
I-2
sa(dp44
g6
F45.0
sg7
F2.8284271247461903
sg8
I2
sg9
I2
sa(dp45
g6
F315.0
sg7
F1.4142135623730951
sg8
I1
sg9
I-1
sa(dp46
g6
F135.0
sg7
F2.8284271247461903
sg8
I-2
sg9
I2
sa(dp47
g6
F26.56505117707799
sg7
F2.23606797749979
sg8
I2
sg9
I1
sasS'consider'
p48
(lp49
(dp50
g6
F90.0
sg7
F3.0
sg8
I0
sg9
I3
sa(dp51
g6
F270.0
sg7
F1.0
sg8
I0
sg9
I-1
sa(dp52
g6
F26.56505117707799
sg7
F2.23606797749979
sg8
I2
sg9
I1
sa(dp53
g6
F213.69006752597977
sg7
F3.605551275463989
sg8
I-3
sg9
I-2
sa(dp54
g6
F90.0
sg7
F2.0
sg8
I0
sg9
I2
sa(dp55
g6
F333.434948822922
sg7
F2.23606797749979
sg8
I2
sg9
I-1
sa(dp56
g6
F90.0
sg7
F1.0
sg8
I0
sg9
I1
sassS'dvorak1H'
p57
(dp58
S'action'
p59
(lp60
(dp61
g6
F180.0
sg7
F5.0
sg8
I-5
sg9
I0
sa(dp62
g6
F0.0
sg7
F2.0
sg8
I2
sg9
I0
sa(dp63
g6
F26.56505117707799
sg7
F2.23606797749979
sg8
I2
sg9
I1
sa(dp64
g6
F296.565051177078
sg7
F2.23606797749979
sg8
I1
sg9
I-2
sa(dp65
g6
F135.0
sg7
F2.8284271247461903
sg8
I-2
sg9
I2
sasS'develop'
p66
(lp67
(dp68
g6
F0.0
sg7
F3.0
sg8
I3
sg9
I0
sa(dp69
g6
F161.565051177078
sg7
F3.1622776601683795
sg8
I-3
sg9
I1
sa(dp70
g6
F341.565051177078
sg7
F3.1622776601683795
sg8
I3
sg9
I-1
sa(dp71
g6
F270.0
sg7
F2.0
sg8
I0
sg9
I-2
sa(dp72
g6
F45.0
sg7
F1.4142135623730951
sg8
I1
sg9
I1
sa(dp73
g6
F194.03624346792648
sg7
F4.123105625617661
sg8
I-4
sg9
I-1
sasS'consider'
p74
(lp75
(dp76
g6
F348.69006752597977
sg7
F5.0990195135927845
sg8
I5
sg9
I-1
sa(dp77
g6
F135.0
sg7
F2.8284271247461903
sg8
I-2
sg9
I2
sa(dp78
g6
F296.565051177078
sg7
F2.23606797749979
sg8
I1
sg9
I-2
sa(dp79
g6
F90.0
sg7
F2.0
sg8
I0
sg9
I2
sa(dp80
g6
F198.434948822922
sg7
F3.1622776601683795
sg8
I-3
sg9
I-1
sa(dp81
g6
F0.0
sg7
F3.0
sg8
I3
sg9
I0
sa(dp82
g6
F225.0
sg7
F1.4142135623730951
sg8
I-1
sg9
I-1
sassS'dvorak'
p83
(dp84
S'action'
p85
(lp86
(dp87
g6
F351.86989764584405
sg7
F7.0710678118654755
sg8
I7
sg9
I-1
sa(dp88
g6
F90.0
sg7
F1.0
sg8
I0
sg9
I1
sa(dp89
g6
F180.0
sg7
F3.0
sg8
I-3
sg9
I0
sa(dp90
g6
F180.0
sg7
F3.0
sg8
I-3
sg9
I0
sa(dp91
g6
F0.0
sg7
F7.0
sg8
I7
sg9
I0
sasS'develop'
p92
(lp93
(dp94
g6
F180.0
sg7
F3.0
sg8
I-3
sg9
I0
sa(dp95
g6
F9.462322208025617
sg7
F6.082762530298219
sg8
I6
sg9
I1
sa(dp96
g6
F189.46232220802563
sg7
F6.082762530298219
sg8
I-6
sg9
I-1
sa(dp97
g6
F351.86989764584405
sg7
F7.0710678118654755
sg8
I7
sg9
I-1
sa(dp98
g6
F172.8749836510982
sg7
F8.06225774829855
sg8
I-8
sg9
I1
sa(dp99
g6
F333.434948822922
sg7
F2.23606797749979
sg8
I2
sg9
I-1
sasS'consider'
p100
(lp101
(dp102
g6
F170.53767779197437
sg7
F6.082762530298219
sg8
I-6
sg9
I1
sa(dp103
g6
F0.0
sg7
F7.0
sg8
I7
sg9
I0
sa(dp104
g6
F0.0
sg7
F1.0
sg8
I1
sg9
I0
sa(dp105
g6
F180.0
sg7
F5.0
sg8
I-5
sg9
I0
sa(dp106
g6
F0.0
sg7
F1.0
sg8
I1
sg9
I0
sa(dp107
g6
F180.0
sg7
F3.0
sg8
I-3
sg9
I0
sa(dp108
g6
F350.5376777919744
sg7
F6.082762530298219
sg8
I6
sg9
I-1
sassS'qwerty'
p109
(dp110
S'action'
p111
(lp112
(dp113
g6
F26.56505117707799
sg7
F2.23606797749979
sg8
I2
sg9
I1
sa(dp114
g6
F315.0
sg7
F2.8284271247461903
sg8
I2
sg9
I-2
sa(dp115
g6
F0.0
sg7
F3.0
sg8
I3
sg9
I0
sa(dp116
g6
F0.0
sg7
F1.0
sg8
I1
sg9
I0
sa(dp117
g6
F135.0
sg7
F2.8284271247461903
sg8
I-2
sg9
I2
sasS'develop'
p118
(lp119
(dp120
g6
F270.0
sg7
F1.0
sg8
I0
sg9
I-1
sa(dp121
g6
F63.43494882292201
sg7
F2.23606797749979
sg8
I1
sg9
I2
sa(dp122
g6
F243.43494882292202
sg7
F2.23606797749979
sg8
I-1
sg9
I-2
sa(dp123
g6
F9.462322208025617
sg7
F6.082762530298219
sg8
I6
sg9
I1
sa(dp124
g6
F270.0
sg7
F1.0
sg8
I0
sg9
I-1
sa(dp125
g6
F0.0
sg7
F1.0
sg8
I1
sg9
I0
sasS'consider'
p126
(lp127
(dp128
g6
F341.565051177078
sg7
F6.324555320336759
sg8
I6
sg9
I-2
sa(dp129
g6
F135.0
sg7
F2.8284271247461903
sg8
I-2
sg9
I2
sa(dp130
g6
F191.3099324740202
sg7
F5.0990195135927845
sg8
I-5
sg9
I-1
sa(dp131
g6
F350.5376777919744
sg7
F6.082762530298219
sg8
I6
sg9
I-1
sa(dp132
g6
F168.6900675259798
sg7
F5.0990195135927845
sg8
I-5
sg9
I1
sa(dp133
g6
F270.0
sg7
F1.0
sg8
I0
sg9
I-1
sa(dp134
g6
F0.0
sg7
F1.0
sg8
I1
sg9
I0
sassS'colemak'
p135
(dp136
S'action'
p137
(lp138
(dp139
g6
F26.56505117707799
sg7
F2.23606797749979
sg8
I2
sg9
I1
sa(dp140
g6
F315.0
sg7
F1.4142135623730951
sg8
I1
sg9
I-1
sa(dp141
g6
F0.0
sg7
F5.0
sg8
I5
sg9
I0
sa(dp142
g6
F0.0
sg7
F1.0
sg8
I1
sg9
I0
sa(dp143
g6
F180.0
sg7
F3.0
sg8
I-3
sg9
I0
sasS'develop'
p144
(lp145
(dp146
g6
F0.0
sg7
F3.0
sg8
I3
sg9
I0
sa(dp147
g6
F165.96375653207352
sg7
F4.123105625617661
sg8
I-4
sg9
I1
sa(dp148
g6
F345.96375653207355
sg7
F4.123105625617661
sg8
I4
sg9
I-1
sa(dp149
g6
F225.0
sg7
F1.4142135623730951
sg8
I-1
sg9
I-1
sa(dp150
g6
F18.43494882292201
sg7
F3.1622776601683795
sg8
I3
sg9
I1
sa(dp151
g6
F189.46232220802563
sg7
F6.082762530298219
sg8
I-6
sg9
I-1
sasS'consider'
p152
(lp153
(dp154
g6
F351.86989764584405
sg7
F7.0710678118654755
sg8
I7
sg9
I-1
sa(dp155
g6
F180.0
sg7
F3.0
sg8
I-3
sg9
I0
sa(dp156
g6
F180.0
sg7
F4.0
sg8
I-4
sg9
I0
sa(dp157
g6
F0.0
sg7
F6.0
sg8
I6
sg9
I0
sa(dp158
g6
F180.0
sg7
F4.0
sg8
I-4
sg9
I0
sa(dp159
g6
F0.0
sg7
F3.0
sg8
I3
sg9
I0
sa(dp160
g6
F180.0
sg7
F6.0
sg8
I-6
sg9
I0
sass.